target datalayout = "e-m:e-p270:32:32-p271:32:32-p272:64:64-i64:64-i128:128-f80:128-n8:16:32:64-S128"
target triple = "x86_64-pc-linux-gnu"

; Function Attrs: mustprogress uwtable
define internal noundef zeroext i1 @_ZL24is_dihedral_on_same_bondRK17InteractionOfTypeS1_(ptr noundef nonnull align 8 dereferenceable(105) %0, ptr noundef nonnull align 8 dereferenceable(105) %1) #0 {
  %3 = alloca ptr, align 8
  %4 = alloca ptr, align 8
  store ptr %0, ptr %3, align 8, !tbaa !137
  store ptr %1, ptr %4, align 8, !tbaa !137
  %5 = load ptr, ptr %3, align 8, !tbaa !137
  %6 = call noundef nonnull align 4 dereferenceable(4) ptr @_ZNK17InteractionOfType2ajEv(ptr noundef nonnull align 8 dereferenceable(105) %5)
  %7 = load i32, ptr %6, align 4, !tbaa !24
  %8 = load ptr, ptr %4, align 8, !tbaa !137
  %9 = call noundef nonnull align 4 dereferenceable(4) ptr @_ZNK17InteractionOfType2ajEv(ptr noundef nonnull align 8 dereferenceable(105) %8)
  %10 = load i32, ptr %9, align 4, !tbaa !24
  %11 = icmp eq i32 %7, %10
  br i1 %11, label %12, label %20

12:                                               ; preds = %2
  %13 = load ptr, ptr %3, align 8, !tbaa !137
  %14 = call noundef nonnull align 4 dereferenceable(4) ptr @_ZNK17InteractionOfType2akEv(ptr noundef nonnull align 8 dereferenceable(105) %13)
  %15 = load i32, ptr %14, align 4, !tbaa !24
  %16 = load ptr, ptr %4, align 8, !tbaa !137
  %17 = call noundef nonnull align 4 dereferenceable(4) ptr @_ZNK17InteractionOfType2akEv(ptr noundef nonnull align 8 dereferenceable(105) %16)
  %18 = load i32, ptr %17, align 4, !tbaa !24
  %19 = icmp eq i32 %15, %18
  br i1 %19, label %38, label %20

20:                                               ; preds = %12, %2
  %21 = load ptr, ptr %3, align 8, !tbaa !137
  %22 = call noundef nonnull align 4 dereferenceable(4) ptr @_ZNK17InteractionOfType2ajEv(ptr noundef nonnull align 8 dereferenceable(105) %21)
  %23 = load i32, ptr %22, align 4, !tbaa !24
  %24 = load ptr, ptr %4, align 8, !tbaa !137
  %25 = call noundef nonnull align 4 dereferenceable(4) ptr @_ZNK17InteractionOfType2akEv(ptr noundef nonnull align 8 dereferenceable(105) %24)
  %26 = load i32, ptr %25, align 4, !tbaa !24
  %27 = icmp eq i32 %23, %26
  br i1 %27, label %28, label %36

28:                                               ; preds = %20
  %29 = load ptr, ptr %3, align 8, !tbaa !137
  %30 = call noundef nonnull align 4 dereferenceable(4) ptr @_ZNK17InteractionOfType2akEv(ptr noundef nonnull align 8 dereferenceable(105) %29)
  %31 = load i32, ptr %30, align 4, !tbaa !24
  %32 = load ptr, ptr %4, align 8, !tbaa !137
  %33 = call noundef nonnull align 4 dereferenceable(4) ptr @_ZNK17InteractionOfType2ajEv(ptr noundef nonnull align 8 dereferenceable(105) %32)
  %34 = load i32, ptr %33, align 4, !tbaa !24
  %35 = icmp eq i32 %31, %34
  br label %36

36:                                               ; preds = %28, %20
  %37 = phi i1 [ false, %20 ], [ %35, %28 ]
  br label %38

38:                                               ; preds = %36, %12
  %39 = phi i1 [ true, %12 ], [ %37, %36 ]
  ret i1 %39
}