; Function Attrs: mustprogress uwtable
define internal fastcc noundef zeroext i1 @_ZL24is_dihedral_on_same_bondRK17InteractionOfTypeS1_(ptr noundef nonnull align 8 dereferenceable(105) %0, ptr noundef nonnull align 8 dereferenceable(105) %1) unnamed_addr #0 {
  %3 = tail call noundef nonnull align 4 dereferenceable(4) ptr @_ZNK17InteractionOfType2ajEv(ptr noundef nonnull align 8 dereferenceable(105) %0)
  %4 = load i32, ptr %3, align 4, !tbaa !39
  %5 = tail call noundef nonnull align 4 dereferenceable(4) ptr @_ZNK17InteractionOfType2ajEv(ptr noundef nonnull align 8 dereferenceable(105) %1)
  %6 = load i32, ptr %5, align 4, !tbaa !39
  %7 = icmp eq i32 %4, %6
  br i1 %7, label %8, label %14

8:                                                ; preds = %2
  %9 = tail call noundef nonnull align 4 dereferenceable(4) ptr @_ZNK17InteractionOfType2akEv(ptr noundef nonnull align 8 dereferenceable(105) %0)
  %10 = load i32, ptr %9, align 4, !tbaa !39
  %11 = tail call noundef nonnull align 4 dereferenceable(4) ptr @_ZNK17InteractionOfType2akEv(ptr noundef nonnull align 8 dereferenceable(105) %1)
  %12 = load i32, ptr %11, align 4, !tbaa !39
  %13 = icmp eq i32 %10, %12
  br i1 %13, label %26, label %14

14:                                               ; preds = %8, %2
  %15 = tail call noundef nonnull align 4 dereferenceable(4) ptr @_ZNK17InteractionOfType2ajEv(ptr noundef nonnull align 8 dereferenceable(105) %0)
  %16 = load i32, ptr %15, align 4, !tbaa !39
  %17 = tail call noundef nonnull align 4 dereferenceable(4) ptr @_ZNK17InteractionOfType2akEv(ptr noundef nonnull align 8 dereferenceable(105) %1)
  %18 = load i32, ptr %17, align 4, !tbaa !39
  %19 = icmp eq i32 %16, %18
  br i1 %19, label %20, label %26

20:                                               ; preds = %14
  %21 = tail call noundef nonnull align 4 dereferenceable(4) ptr @_ZNK17InteractionOfType2akEv(ptr noundef nonnull align 8 dereferenceable(105) %0)
  %22 = load i32, ptr %21, align 4, !tbaa !39
  %23 = tail call noundef nonnull align 4 dereferenceable(4) ptr @_ZNK17InteractionOfType2ajEv(ptr noundef nonnull align 8 dereferenceable(105) %1)
  %24 = load i32, ptr %23, align 4, !tbaa !39
  %25 = icmp eq i32 %22, %24
  br label %26

26:                                               ; preds = %14, %20, %8
  %27 = phi i1 [ true, %8 ], [ false, %14 ], [ %25, %20 ]
  ret i1 %27
}